; Function Attrs: mustprogress nofree nounwind willreturn memory(read, inaccessiblemem: none) uwtable
define dso_local noundef zeroext i1 @_ZNK4llvm20CheckCondCodeMatcher19isContradictoryImplEPKNS_7MatcherE(ptr nocapture noundef nonnull readonly align 8 dereferenceable(48) %0, ptr noundef readonly %1) unnamed_addr #8 align 2 {
  %3 = getelementptr inbounds nuw i8, ptr %1, i64 24
  %4 = load i32, ptr %3, align 8
  %5 = icmp ne i32 %4, 19
  %.not13 = icmp eq ptr %1, null
  %.not = or i1 %.not13, %5
  br i1 %.not, label %_ZN4llvmneENS_9StringRefES0_.exit, label %6

6:                                                ; preds = %2
  %7 = getelementptr inbounds nuw i8, ptr %1, i64 32
  %.sroa.0.0.copyload.i = load ptr, ptr %7, align 8
  %.sroa.2.0..sroa_idx.i = getelementptr inbounds i8, ptr %1, i64 40
  %.sroa.2.0.copyload.i = load i64, ptr %.sroa.2.0..sroa_idx.i, align 8
  %8 = getelementptr inbounds nuw i8, ptr %0, i64 32
  %.sroa.0.0.copyload.i8 = load ptr, ptr %8, align 8
  %.sroa.2.0..sroa_idx.i9 = getelementptr inbounds i8, ptr %0, i64 40
  %.sroa.2.0.copyload.i10 = load i64, ptr %.sroa.2.0..sroa_idx.i9, align 8
  %.not.i.i = icmp eq i64 %.sroa.2.0.copyload.i, %.sroa.2.0.copyload.i10
  br i1 %.not.i.i, label %9, label %_ZN4llvmneENS_9StringRefES0_.exit

9:                                                ; preds = %6
  %10 = icmp eq i64 %.sroa.2.0.copyload.i, 0
  br i1 %10, label %_ZN4llvmneENS_9StringRefES0_.exit, label %11

11:                                               ; preds = %9
  %bcmp.i.i = tail call i32 @bcmp(ptr %.sroa.0.0.copyload.i, ptr %.sroa.0.0.copyload.i8, i64 %.sroa.2.0.copyload.i)
  %12 = icmp ne i32 %bcmp.i.i, 0
  br label %_ZN4llvmneENS_9StringRefES0_.exit

_ZN4llvmneENS_9StringRefES0_.exit:                ; preds = %11, %9, %6, %2
  %.0 = phi i1 [ false, %2 ], [ %12, %11 ], [ true, %6 ], [ false, %9 ]
  ret i1 %.0
}